target datalayout = "e-m:e-p270:32:32-p271:32:32-p272:64:64-i64:64-i128:128-f80:128-n8:16:32:64-S128"
target triple = "x86_64-pc-linux-gnu"

; Function Attrs: inlinehint nounwind uwtable
define internal i32 @toLitCond(i32 noundef %0, i32 noundef %1) #2 {
  %3 = alloca i32, align 4
  %4 = alloca i32, align 4
  store i32 %0, ptr %3, align 4, !tbaa !17
  store i32 %1, ptr %4, align 4, !tbaa !17
  %5 = load i32, ptr %3, align 4, !tbaa !17
  %6 = load i32, ptr %3, align 4, !tbaa !17
  %7 = add nsw i32 %5, %6
  %8 = load i32, ptr %4, align 4, !tbaa !17
  %9 = icmp ne i32 %8, 0
  %10 = zext i1 %9 to i32
  %11 = add nsw i32 %7, %10
  ret i32 %11
}

; Function Attrs: nounwind uwtable
define i32 @Res_SatAddAnd(ptr noundef %0, i32 noundef %1, i32 noundef %2, i32 noundef %3, i32 noundef %4, i32 noundef %5) #0 {
  %7 = alloca i32, align 4
  %8 = alloca ptr, align 8
  %9 = alloca i32, align 4
  %10 = alloca i32, align 4
  %11 = alloca i32, align 4
  %12 = alloca i32, align 4
  %13 = alloca i32, align 4
  %14 = alloca [3 x i32], align 4
  %15 = alloca i32, align 4
  store ptr %0, ptr %8, align 8, !tbaa !23
  store i32 %1, ptr %9, align 4, !tbaa !17
  store i32 %2, ptr %10, align 4, !tbaa !17
  store i32 %3, ptr %11, align 4, !tbaa !17
  store i32 %4, ptr %12, align 4, !tbaa !17
  store i32 %5, ptr %13, align 4, !tbaa !17
  call void @llvm.lifetime.start.p0(i64 12, ptr %14) #7
  %16 = load i32, ptr %9, align 4, !tbaa !17
  %17 = call i32 @toLitCond(i32 noundef %16, i32 noundef 1)
  %18 = getelementptr inbounds [3 x i32], ptr %14, i64 0, i64 0
  store i32 %17, ptr %18, align 4, !tbaa !17
  %19 = load i32, ptr %10, align 4, !tbaa !17
  %20 = load i32, ptr %12, align 4, !tbaa !17
  %21 = call i32 @toLitCond(i32 noundef %19, i32 noundef %20)
  %22 = getelementptr inbounds [3 x i32], ptr %14, i64 0, i64 1
  store i32 %21, ptr %22, align 4, !tbaa !17
  %23 = load ptr, ptr %8, align 8, !tbaa !23
  %24 = getelementptr inbounds [3 x i32], ptr %14, i64 0, i64 0
  %25 = getelementptr inbounds [3 x i32], ptr %14, i64 0, i64 0
  %26 = getelementptr inbounds i32, ptr %25, i64 2
  %27 = call i32 @sat_solver_addclause(ptr noundef %23, ptr noundef %24, ptr noundef %26)
  %28 = icmp ne i32 %27, 0
  br i1 %28, label %30, label %29

29:                                               ; preds = %6
  store i32 0, ptr %7, align 4
  store i32 1, ptr %15, align 4
  br label %71

30:                                               ; preds = %6
  %31 = load i32, ptr %9, align 4, !tbaa !17
  %32 = call i32 @toLitCond(i32 noundef %31, i32 noundef 1)
  %33 = getelementptr inbounds [3 x i32], ptr %14, i64 0, i64 0
  store i32 %32, ptr %33, align 4, !tbaa !17
  %34 = load i32, ptr %11, align 4, !tbaa !17
  %35 = load i32, ptr %13, align 4, !tbaa !17
  %36 = call i32 @toLitCond(i32 noundef %34, i32 noundef %35)
  %37 = getelementptr inbounds [3 x i32], ptr %14, i64 0, i64 1
  store i32 %36, ptr %37, align 4, !tbaa !17
  %38 = load ptr, ptr %8, align 8, !tbaa !23
  %39 = getelementptr inbounds [3 x i32], ptr %14, i64 0, i64 0
  %40 = getelementptr inbounds [3 x i32], ptr %14, i64 0, i64 0
  %41 = getelementptr inbounds i32, ptr %40, i64 2
  %42 = call i32 @sat_solver_addclause(ptr noundef %38, ptr noundef %39, ptr noundef %41)
  %43 = icmp ne i32 %42, 0
  br i1 %43, label %45, label %44

44:                                               ; preds = %30
  store i32 0, ptr %7, align 4
  store i32 1, ptr %15, align 4
  br label %71

45:                                               ; preds = %30
  %46 = load i32, ptr %9, align 4, !tbaa !17
  %47 = call i32 @toLitCond(i32 noundef %46, i32 noundef 0)
  %48 = getelementptr inbounds [3 x i32], ptr %14, i64 0, i64 0
  store i32 %47, ptr %48, align 4, !tbaa !17
  %49 = load i32, ptr %10, align 4, !tbaa !17
  %50 = load i32, ptr %12, align 4, !tbaa !17
  %51 = icmp ne i32 %50, 0
  %52 = xor i1 %51, true
  %53 = zext i1 %52 to i32
  %54 = call i32 @toLitCond(i32 noundef %49, i32 noundef %53)
  %55 = getelementptr inbounds [3 x i32], ptr %14, i64 0, i64 1
  store i32 %54, ptr %55, align 4, !tbaa !17
  %56 = load i32, ptr %11, align 4, !tbaa !17
  %57 = load i32, ptr %13, align 4, !tbaa !17
  %58 = icmp ne i32 %57, 0
  %59 = xor i1 %58, true
  %60 = zext i1 %59 to i32
  %61 = call i32 @toLitCond(i32 noundef %56, i32 noundef %60)
  %62 = getelementptr inbounds [3 x i32], ptr %14, i64 0, i64 2
  store i32 %61, ptr %62, align 4, !tbaa !17
  %63 = load ptr, ptr %8, align 8, !tbaa !23
  %64 = getelementptr inbounds [3 x i32], ptr %14, i64 0, i64 0
  %65 = getelementptr inbounds [3 x i32], ptr %14, i64 0, i64 0
  %66 = getelementptr inbounds i32, ptr %65, i64 3
  %67 = call i32 @sat_solver_addclause(ptr noundef %63, ptr noundef %64, ptr noundef %66)
  %68 = icmp ne i32 %67, 0
  br i1 %68, label %70, label %69

69:                                               ; preds = %45
  store i32 0, ptr %7, align 4
  store i32 1, ptr %15, align 4
  br label %71

70:                                               ; preds = %45
  store i32 1, ptr %7, align 4
  store i32 1, ptr %15, align 4
  br label %71

71:                                               ; preds = %70, %69, %44, %29
  call void @llvm.lifetime.end.p0(i64 12, ptr %14) #7
  %72 = load i32, ptr %7, align 4
  ret i32 %72
}