; Function Attrs: nounwind uwtable
define range(i32 0, 2) i32 @Res_SatAddAnd(ptr noundef %0, i32 noundef %1, i32 noundef %2, i32 noundef %3, i32 noundef %4, i32 noundef %5) local_unnamed_addr #0 {
  %7 = alloca [3 x i32], align 4
  call void @llvm.lifetime.start.p0(i64 12, ptr nonnull %7) #7
  %8 = shl nsw i32 %1, 1
  %9 = or disjoint i32 %8, 1
  store i32 %9, ptr %7, align 4, !tbaa !33
  %10 = shl nsw i32 %2, 1
  %11 = icmp ne i32 %4, 0
  %12 = zext i1 %11 to i32
  %13 = or disjoint i32 %10, %12
  %14 = getelementptr inbounds nuw i8, ptr %7, i64 4
  store i32 %13, ptr %14, align 4, !tbaa !33
  %15 = getelementptr inbounds nuw i8, ptr %7, i64 8
  %16 = call i32 @sat_solver_addclause(ptr noundef %0, ptr noundef nonnull %7, ptr noundef nonnull %15) #7
  %.not = icmp eq i32 %16, 0
  br i1 %.not, label %30, label %17

17:                                               ; preds = %6
  store i32 %9, ptr %7, align 4, !tbaa !33
  %18 = shl nsw i32 %3, 1
  %19 = icmp ne i32 %5, 0
  %20 = zext i1 %19 to i32
  %21 = or disjoint i32 %18, %20
  store i32 %21, ptr %14, align 4, !tbaa !33
  %22 = call i32 @sat_solver_addclause(ptr noundef %0, ptr noundef nonnull %7, ptr noundef nonnull %15) #7
  %.not14 = icmp eq i32 %22, 0
  br i1 %.not14, label %30, label %23

23:                                               ; preds = %17
  store i32 %8, ptr %7, align 4, !tbaa !33
  %.not15 = icmp eq i32 %4, 0
  %24 = zext i1 %.not15 to i32
  %25 = or disjoint i32 %10, %24
  store i32 %25, ptr %14, align 4, !tbaa !33
  %.not16 = icmp eq i32 %5, 0
  %26 = zext i1 %.not16 to i32
  %27 = or disjoint i32 %18, %26
  store i32 %27, ptr %15, align 4, !tbaa !33
  %28 = getelementptr inbounds nuw i8, ptr %7, i64 12
  %29 = call i32 @sat_solver_addclause(ptr noundef %0, ptr noundef nonnull %7, ptr noundef nonnull %28) #7
  %.not17 = icmp ne i32 %29, 0
  %. = zext i1 %.not17 to i32
  br label %30

30:                                               ; preds = %23, %17, %6
  %.0 = phi i32 [ 0, %6 ], [ 0, %17 ], [ %., %23 ]
  call void @llvm.lifetime.end.p0(i64 12, ptr nonnull %7) #7
  ret i32 %.0
}